; Function Attrs: mustprogress uwtable
define dso_local void @_ZN22btDeformableBodySolver14setConstraintsERK19btContactSolverInfo(ptr noundef nonnull readonly align 8 captures(none) dereferenceable(609) %0, ptr noundef nonnull align 4 dereferenceable(128) %1) unnamed_addr #4 align 2 personality ptr @__gxx_personality_v0 {
  %3 = alloca %class.CProfileSample, align 1
  call void @llvm.lifetime.start.p0(i64 1, ptr nonnull %3) #27
  call void @_ZN14CProfileSampleC1EPKc(ptr noundef nonnull align 1 dereferenceable(1) %3, ptr noundef nonnull @.str.9)
  %4 = getelementptr inbounds nuw i8, ptr %0, i64 600
  %5 = load ptr, ptr %4, align 8, !tbaa !104
  invoke void @_ZN34btDeformableBackwardEulerObjective14setConstraintsERK19btContactSolverInfo(ptr noundef nonnull align 8 dereferenceable(504) %5, ptr noundef nonnull align 4 dereferenceable(128) %1)
          to label %6 unwind label %7

6:                                                ; preds = %2
  call void @_ZN14CProfileSampleD1Ev(ptr noundef nonnull align 1 dereferenceable(1) %3) #27
  call void @llvm.lifetime.end.p0(i64 1, ptr nonnull %3) #27
  ret void

7:                                                ; preds = %2
  %8 = landingpad { ptr, i32 }
          cleanup
  call void @_ZN14CProfileSampleD1Ev(ptr noundef nonnull align 1 dereferenceable(1) %3) #27
  call void @llvm.lifetime.end.p0(i64 1, ptr nonnull %3) #27
  resume { ptr, i32 } %8
}